; Function Attrs: mustprogress uwtable
define void @_ZN28grpc_alts_server_credentialsC2EPK29grpc_alts_credentials_optionsPKc(ptr noundef nonnull align 8 dereferenceable(56) %this, ptr noundef %options, ptr noundef %handshaker_service_url) unnamed_addr #3 align 2 personality ptr @__gxx_personality_v0 {
entry:
  %refs_.i.i = getelementptr inbounds i8, ptr %this, i64 8
  store i64 1, ptr %refs_.i.i, align 8
  %processor_.i = getelementptr inbounds i8, ptr %this, i64 16
  tail call void @llvm.memset.p0.i64(ptr noundef nonnull align 8 dereferenceable(24) %processor_.i, i8 0, i64 24, i1 false)
  store ptr getelementptr inbounds ({ [6 x ptr] }, ptr @_ZTV28grpc_alts_server_credentials, i64 0, i32 0, i64 2), ptr %this, align 8
  %options_ = getelementptr inbounds i8, ptr %this, i64 40
  %call = invoke noundef ptr @_Z34grpc_alts_credentials_options_copyPK29grpc_alts_credentials_options(ptr noundef %options)
          to label %invoke.cont unwind label %lpad

invoke.cont:                                      ; preds = %entry
  store ptr %call, ptr %options_, align 8
  %cmp = icmp eq ptr %handshaker_service_url, null
  %.str.handshaker_service_url = select i1 %cmp, ptr @.str, ptr %handshaker_service_url
  %0 = invoke ptr @gpr_strdup(ptr noundef nonnull %.str.handshaker_service_url)
          to label %cond.end unwind label %lpad

cond.end:                                         ; preds = %invoke.cont
  %handshaker_service_url_ = getelementptr inbounds i8, ptr %this, i64 48
  store ptr %0, ptr %handshaker_service_url_, align 8
  %1 = load ptr, ptr %options_, align 8
  %rpc_versions = getelementptr inbounds i8, ptr %1, i64 8
  invoke void @_Z35grpc_alts_set_rpc_protocol_versionsP29_grpc_gcp_RpcProtocolVersions(ptr noundef nonnull %rpc_versions)
          to label %invoke.cont7 unwind label %lpad

invoke.cont7:                                     ; preds = %cond.end
  ret void

lpad:                                             ; preds = %invoke.cont, %cond.end, %entry
  %2 = landingpad { ptr, i32 }
          cleanup
  tail call void @_ZN23grpc_server_credentialsD2Ev(ptr noundef nonnull align 8 dereferenceable(40) %this) #15
  resume { ptr, i32 } %2
}